target datalayout = "e-m:e-p270:32:32-p271:32:32-p272:64:64-i64:64-i128:128-f80:128-n8:16:32:64-S128"
target triple = "x86_64-pc-linux-gnu"

@save_argc = internal global i32 0, align 4
@save_argv = internal global ptr null, align 8
@environ = external global ptr, align 8
@ps_buffer = internal global ptr null, align 8
@ps_buffer_size = internal global i64 0, align 8
@new_environ = internal global ptr null, align 8
@frozen_environ = internal global ptr null, align 8

; Function Attrs: nounwind uwtable
define hidden ptr @save_ps_args(i32 noundef %0, ptr noundef %1) #0 {
  %3 = alloca ptr, align 8
  %4 = alloca i32, align 4
  %5 = alloca ptr, align 8
  %6 = alloca ptr, align 8
  %7 = alloca i8, align 1
  %8 = alloca i32, align 4
  %9 = alloca ptr, align 8
  %10 = alloca i32, align 4
  %11 = alloca i32, align 4
  store i32 %0, ptr %4, align 4
  store ptr %1, ptr %5, align 8
  %12 = load i32, ptr %4, align 4
  store i32 %12, ptr @save_argc, align 4
  %13 = load ptr, ptr %5, align 8
  store ptr %13, ptr @save_argv, align 8
  store ptr null, ptr %6, align 8
  store i8 1, ptr %7, align 1
  store i32 0, ptr %8, align 4
  br label %14

14:                                               ; preds = %49, %2
  %15 = load i8, ptr %7, align 1
  %16 = trunc i8 %15 to i1
  br i1 %16, label %17, label %21

17:                                               ; preds = %14
  %18 = load i32, ptr %8, align 4
  %19 = load i32, ptr %4, align 4
  %20 = icmp slt i32 %18, %19
  br label %21

21:                                               ; preds = %17, %14
  %22 = phi i1 [ false, %14 ], [ %20, %17 ]
  br i1 %22, label %23, label %52

23:                                               ; preds = %21
  %24 = load i32, ptr %8, align 4
  %25 = icmp ne i32 %24, 0
  br i1 %25, label %26, label %36

26:                                               ; preds = %23
  %27 = load ptr, ptr %6, align 8
  %28 = getelementptr inbounds i8, ptr %27, i64 1
  %29 = load ptr, ptr %5, align 8
  %30 = load i32, ptr %8, align 4
  %31 = sext i32 %30 to i64
  %32 = getelementptr inbounds ptr, ptr %29, i64 %31
  %33 = load ptr, ptr %32, align 8
  %34 = icmp ne ptr %28, %33
  br i1 %34, label %35, label %36

35:                                               ; preds = %26
  store i8 0, ptr %7, align 1
  br label %36

36:                                               ; preds = %35, %26, %23
  %37 = load ptr, ptr %5, align 8
  %38 = load i32, ptr %8, align 4
  %39 = sext i32 %38 to i64
  %40 = getelementptr inbounds ptr, ptr %37, i64 %39
  %41 = load ptr, ptr %40, align 8
  %42 = load ptr, ptr %5, align 8
  %43 = load i32, ptr %8, align 4
  %44 = sext i32 %43 to i64
  %45 = getelementptr inbounds ptr, ptr %42, i64 %44
  %46 = load ptr, ptr %45, align 8
  %47 = call i64 @strlen(ptr noundef %46) #6
  %48 = getelementptr inbounds i8, ptr %41, i64 %47
  store ptr %48, ptr %6, align 8
  br label %49

49:                                               ; preds = %36
  %50 = load i32, ptr %8, align 4
  %51 = add nsw i32 %50, 1
  store i32 %51, ptr %8, align 4
  br label %14

52:                                               ; preds = %21
  %53 = load i8, ptr %7, align 1
  %54 = trunc i8 %53 to i1
  br i1 %54, label %56, label %55

55:                                               ; preds = %52
  br label %218

56:                                               ; preds = %52
  store i32 0, ptr %8, align 4
  br label %57

57:                                               ; preds = %87, %56
  %58 = load ptr, ptr @environ, align 8
  %59 = load i32, ptr %8, align 4
  %60 = sext i32 %59 to i64
  %61 = getelementptr inbounds ptr, ptr %58, i64 %60
  %62 = load ptr, ptr %61, align 8
  %63 = icmp ne ptr %62, null
  br i1 %63, label %64, label %90

64:                                               ; preds = %57
  %65 = load ptr, ptr %6, align 8
  %66 = getelementptr inbounds i8, ptr %65, i64 1
  %67 = load ptr, ptr @environ, align 8
  %68 = load i32, ptr %8, align 4
  %69 = sext i32 %68 to i64
  %70 = getelementptr inbounds ptr, ptr %67, i64 %69
  %71 = load ptr, ptr %70, align 8
  %72 = icmp eq ptr %66, %71
  br i1 %72, label %73, label %86

73:                                               ; preds = %64
  %74 = load ptr, ptr @environ, align 8
  %75 = load i32, ptr %8, align 4
  %76 = sext i32 %75 to i64
  %77 = getelementptr inbounds ptr, ptr %74, i64 %76
  %78 = load ptr, ptr %77, align 8
  %79 = load ptr, ptr @environ, align 8
  %80 = load i32, ptr %8, align 4
  %81 = sext i32 %80 to i64
  %82 = getelementptr inbounds ptr, ptr %79, i64 %81
  %83 = load ptr, ptr %82, align 8
  %84 = call i64 @strlen(ptr noundef %83) #6
  %85 = getelementptr inbounds i8, ptr %78, i64 %84
  store ptr %85, ptr %6, align 8
  br label %86

86:                                               ; preds = %73, %64
  br label %87

87:                                               ; preds = %86
  %88 = load i32, ptr %8, align 4
  %89 = add nsw i32 %88, 1
  store i32 %89, ptr %8, align 4
  br label %57

90:                                               ; preds = %57
  %91 = load ptr, ptr %5, align 8
  %92 = getelementptr inbounds ptr, ptr %91, i64 0
  %93 = load ptr, ptr %92, align 8
  store ptr %93, ptr @ps_buffer, align 8
  %94 = load ptr, ptr %6, align 8
  %95 = load ptr, ptr %5, align 8
  %96 = getelementptr inbounds ptr, ptr %95, i64 0
  %97 = load ptr, ptr %96, align 8
  %98 = ptrtoint ptr %94 to i64
  %99 = ptrtoint ptr %97 to i64
  %100 = sub i64 %98, %99
  store i64 %100, ptr @ps_buffer_size, align 8
  %101 = load i32, ptr %8, align 4
  %102 = add nsw i32 %101, 1
  %103 = sext i32 %102 to i64
  %104 = mul i64 %103, 8
  %105 = call noalias ptr @malloc(i64 noundef %104) #7
  store ptr %105, ptr @new_environ, align 8
  %106 = load i32, ptr %8, align 4
  %107 = add nsw i32 %106, 1
  %108 = sext i32 %107 to i64
  %109 = mul i64 %108, 8
  %110 = call noalias ptr @malloc(i64 noundef %109) #7
  store ptr %110, ptr @frozen_environ, align 8
  %111 = load ptr, ptr @new_environ, align 8
  %112 = icmp ne ptr %111, null
  br i1 %112, label %113, label %116

113:                                              ; preds = %90
  %114 = load ptr, ptr @frozen_environ, align 8
  %115 = icmp ne ptr %114, null
  br i1 %115, label %117, label %116

116:                                              ; preds = %113, %90
  br label %218

117:                                              ; preds = %113
  store i32 0, ptr %8, align 4
  br label %118

118:                                              ; preds = %144, %117
  %119 = load ptr, ptr @environ, align 8
  %120 = load i32, ptr %8, align 4
  %121 = sext i32 %120 to i64
  %122 = getelementptr inbounds ptr, ptr %119, i64 %121
  %123 = load ptr, ptr %122, align 8
  %124 = icmp ne ptr %123, null
  br i1 %124, label %125, label %147

125:                                              ; preds = %118
  %126 = load ptr, ptr @environ, align 8
  %127 = load i32, ptr %8, align 4
  %128 = sext i32 %127 to i64
  %129 = getelementptr inbounds ptr, ptr %126, i64 %128
  %130 = load ptr, ptr %129, align 8
  %131 = call noalias ptr @strdup(ptr noundef %130) #8
  %132 = load ptr, ptr @new_environ, align 8
  %133 = load i32, ptr %8, align 4
  %134 = sext i32 %133 to i64
  %135 = getelementptr inbounds ptr, ptr %132, i64 %134
  store ptr %131, ptr %135, align 8
  %136 = load ptr, ptr @new_environ, align 8
  %137 = load i32, ptr %8, align 4
  %138 = sext i32 %137 to i64
  %139 = getelementptr inbounds ptr, ptr %136, i64 %138
  %140 = load ptr, ptr %139, align 8
  %141 = icmp ne ptr %140, null
  br i1 %141, label %143, label %142

142:                                              ; preds = %125
  br label %218

143:                                              ; preds = %125
  br label %144

144:                                              ; preds = %143
  %145 = load i32, ptr %8, align 4
  %146 = add nsw i32 %145, 1
  store i32 %146, ptr %8, align 4
  br label %118

147:                                              ; preds = %118
  %148 = load ptr, ptr @new_environ, align 8
  %149 = load i32, ptr %8, align 4
  %150 = sext i32 %149 to i64
  %151 = getelementptr inbounds ptr, ptr %148, i64 %150
  store ptr null, ptr %151, align 8
  %152 = load ptr, ptr @new_environ, align 8
  store ptr %152, ptr @environ, align 8
  %153 = load ptr, ptr @frozen_environ, align 8
  %154 = load ptr, ptr @new_environ, align 8
  %155 = load i32, ptr %8, align 4
  %156 = add nsw i32 %155, 1
  %157 = sext i32 %156 to i64
  %158 = mul i64 8, %157
  call void @llvm.memcpy.p0.p0.i64(ptr align 1 %153, ptr align 1 %154, i64 %158, i1 false)
  %159 = load i32, ptr %4, align 4
  %160 = add nsw i32 %159, 1
  %161 = sext i32 %160 to i64
  %162 = mul i64 %161, 8
  %163 = call noalias ptr @malloc(i64 noundef %162) #7
  store ptr %163, ptr %9, align 8
  %164 = load ptr, ptr %9, align 8
  %165 = icmp ne ptr %164, null
  br i1 %165, label %167, label %166

166:                                              ; preds = %147
  br label %218

167:                                              ; preds = %147
  store i32 0, ptr %10, align 4
  br label %168

168:                                              ; preds = %192, %167
  %169 = load i32, ptr %10, align 4
  %170 = load i32, ptr %4, align 4
  %171 = icmp slt i32 %169, %170
  br i1 %171, label %172, label %195

172:                                              ; preds = %168
  %173 = load ptr, ptr %5, align 8
  %174 = load i32, ptr %10, align 4
  %175 = sext i32 %174 to i64
  %176 = getelementptr inbounds ptr, ptr %173, i64 %175
  %177 = load ptr, ptr %176, align 8
  %178 = call noalias ptr @strdup(ptr noundef %177) #8
  %179 = load ptr, ptr %9, align 8
  %180 = load i32, ptr %10, align 4
  %181 = sext i32 %180 to i64
  %182 = getelementptr inbounds ptr, ptr %179, i64 %181
  store ptr %178, ptr %182, align 8
  %183 = load ptr, ptr %9, align 8
  %184 = load i32, ptr %10, align 4
  %185 = sext i32 %184 to i64
  %186 = getelementptr inbounds ptr, ptr %183, i64 %185
  %187 = load ptr, ptr %186, align 8
  %188 = icmp ne ptr %187, null
  br i1 %188, label %191, label %189

189:                                              ; preds = %172
  %190 = load ptr, ptr %9, align 8
  call void @free(ptr noundef %190) #8
  br label %218

191:                                              ; preds = %172
  br label %192

192:                                              ; preds = %191
  %193 = load i32, ptr %10, align 4
  %194 = add nsw i32 %193, 1
  store i32 %194, ptr %10, align 4
  br label %168

195:                                              ; preds = %168
  %196 = load ptr, ptr %9, align 8
  %197 = load i32, ptr %4, align 4
  %198 = sext i32 %197 to i64
  %199 = getelementptr inbounds ptr, ptr %196, i64 %198
  store ptr null, ptr %199, align 8
  %200 = load ptr, ptr %9, align 8
  store ptr %200, ptr %5, align 8
  store i32 1, ptr %11, align 4
  br label %201

201:                                              ; preds = %213, %195
  %202 = load i32, ptr %11, align 4
  %203 = load i32, ptr @save_argc, align 4
  %204 = icmp slt i32 %202, %203
  br i1 %204, label %205, label %216

205:                                              ; preds = %201
  %206 = load ptr, ptr @ps_buffer, align 8
  %207 = load i64, ptr @ps_buffer_size, align 8
  %208 = getelementptr inbounds i8, ptr %206, i64 %207
  %209 = load ptr, ptr @save_argv, align 8
  %210 = load i32, ptr %11, align 4
  %211 = sext i32 %210 to i64
  %212 = getelementptr inbounds ptr, ptr %209, i64 %211
  store ptr %208, ptr %212, align 8
  br label %213

213:                                              ; preds = %205
  %214 = load i32, ptr %11, align 4
  %215 = add nsw i32 %214, 1
  store i32 %215, ptr %11, align 4
  br label %201

216:                                              ; preds = %201
  %217 = load ptr, ptr %5, align 8
  store ptr %217, ptr %3, align 8
  br label %220

218:                                              ; preds = %189, %166, %142, %116, %55
  store ptr null, ptr @save_argv, align 8
  store i32 0, ptr @save_argc, align 4
  store ptr null, ptr @ps_buffer, align 8
  store i64 0, ptr @ps_buffer_size, align 8
  %219 = load ptr, ptr %5, align 8
  store ptr %219, ptr %3, align 8
  br label %220

220:                                              ; preds = %218, %216
  %221 = load ptr, ptr %3, align 8
  ret ptr %221
}